; ModuleID = 'source-C-CXX/2/3207.c'
source_filename = "source-C-CXX/2/3207.c"
target datalayout = "e-m:e-p270:32:32-p271:32:32-p272:64:64-i64:64-f80:128-n8:16:32:64-S128"
target triple = "x86_64-pc-linux-gnu"

@.str = private unnamed_addr constant [5 x i8] c"%d%d\00", align 1
@.str.1 = private unnamed_addr constant [3 x i8] c"%d\00", align 1
@t = dso_local global [2000 x i32] zeroinitializer, align 16
@.str.2 = private unnamed_addr constant [4 x i8] c"yes\00", align 1
@.str.3 = private unnamed_addr constant [3 x i8] c"no\00", align 1
@s = dso_local local_unnamed_addr global [1000 x double] zeroinitializer, align 16
@si = dso_local local_unnamed_addr global double 0.000000e+00, align 8

; Function Attrs: nofree nounwind sspstrong uwtable
define dso_local i32 @main() local_unnamed_addr #0 {
  %1 = alloca i32, align 4
  %2 = alloca i32, align 4
  %3 = bitcast i32* %1 to i8*
  call void @llvm.lifetime.start.p0i8(i64 4, i8* nonnull %3) #3
  %4 = bitcast i32* %2 to i8*
  call void @llvm.lifetime.start.p0i8(i64 4, i8* nonnull %4) #3
  %5 = call i32 (i8*, ...) @__isoc99_scanf(i8* getelementptr inbounds ([5 x i8], [5 x i8]* @.str, i64 0, i64 0), i32* nonnull %2, i32* nonnull %1)
  %6 = load i32, i32* %2, align 4, !tbaa !5
  %7 = icmp sgt i32 %6, 0
  br i1 %7, label %17, label %94

8:                                                ; preds = %17
  %9 = load i32, i32* %1, align 4
  %10 = icmp sgt i32 %22, 1
  br i1 %10, label %11, label %94

11:                                               ; preds = %8
  %12 = zext i32 %22 to i64
  %13 = add nsw i32 %22, -1
  %14 = zext i32 %13 to i64
  %15 = zext i32 %22 to i64
  %16 = add nsw i64 %15, -2
  br label %25

17:                                               ; preds = %0, %17
  %18 = phi i64 [ %21, %17 ], [ 0, %0 ]
  %19 = getelementptr inbounds [2000 x i32], [2000 x i32]* @t, i64 0, i64 %18
  %20 = call i32 (i8*, ...) @__isoc99_scanf(i8* getelementptr inbounds ([3 x i8], [3 x i8]* @.str.1, i64 0, i64 0), i32* nonnull %19)
  %21 = add nuw nsw i64 %18, 1
  %22 = load i32, i32* %2, align 4, !tbaa !5
  %23 = sext i32 %22 to i64
  %24 = icmp slt i64 %21, %23
  br i1 %24, label %17, label %8, !llvm.loop !9

25:                                               ; preds = %11, %88
  %26 = phi i64 [ 0, %11 ], [ %90, %88 ]
  %27 = phi i32 [ 0, %11 ], [ %89, %88 ]
  %28 = xor i64 %26, -1
  %29 = add nsw i64 %28, %15
  %30 = sub i64 %16, %26
  %31 = icmp ult i64 %26, %12
  br i1 %31, label %32, label %88

32:                                               ; preds = %25
  %33 = getelementptr inbounds [2000 x i32], [2000 x i32]* @t, i64 0, i64 %26
  %34 = load i32, i32* %33, align 4, !tbaa !5
  %35 = shl nsw i32 %34, 1
  %36 = icmp eq i32 %35, %9
  %37 = select i1 %36, i32 1, i32 %27
  %38 = add nuw nsw i64 %26, 1
  %39 = icmp eq i64 %38, %15
  br i1 %39, label %88, label %40, !llvm.loop !11

40:                                               ; preds = %32
  %41 = and i64 %29, 3
  %42 = icmp eq i64 %41, 0
  br i1 %42, label %55, label %43

43:                                               ; preds = %40, %43
  %44 = phi i64 [ %52, %43 ], [ %38, %40 ]
  %45 = phi i32 [ %51, %43 ], [ %37, %40 ]
  %46 = phi i64 [ %53, %43 ], [ %41, %40 ]
  %47 = getelementptr inbounds [2000 x i32], [2000 x i32]* @t, i64 0, i64 %44
  %48 = load i32, i32* %47, align 4, !tbaa !5
  %49 = add nsw i32 %48, %34
  %50 = icmp eq i32 %49, %9
  %51 = select i1 %50, i32 1, i32 %45
  %52 = add nuw nsw i64 %44, 1
  %53 = add i64 %46, -1
  %54 = icmp eq i64 %53, 0
  br i1 %54, label %55, label %43, !llvm.loop !12

55:                                               ; preds = %43, %40
  %56 = phi i32 [ undef, %40 ], [ %51, %43 ]
  %57 = phi i64 [ %38, %40 ], [ %52, %43 ]
  %58 = phi i32 [ %37, %40 ], [ %51, %43 ]
  %59 = icmp ult i64 %30, 3
  br i1 %59, label %88, label %60

60:                                               ; preds = %55, %60
  %61 = phi i64 [ %86, %60 ], [ %57, %55 ]
  %62 = phi i32 [ %85, %60 ], [ %58, %55 ]
  %63 = getelementptr inbounds [2000 x i32], [2000 x i32]* @t, i64 0, i64 %61
  %64 = load i32, i32* %63, align 4, !tbaa !5
  %65 = add nsw i32 %64, %34
  %66 = icmp eq i32 %65, %9
  %67 = add nuw nsw i64 %61, 1
  %68 = getelementptr inbounds [2000 x i32], [2000 x i32]* @t, i64 0, i64 %67
  %69 = load i32, i32* %68, align 4, !tbaa !5
  %70 = add nsw i32 %69, %34
  %71 = icmp eq i32 %70, %9
  %72 = add nuw nsw i64 %61, 2
  %73 = getelementptr inbounds [2000 x i32], [2000 x i32]* @t, i64 0, i64 %72
  %74 = load i32, i32* %73, align 4, !tbaa !5
  %75 = add nsw i32 %74, %34
  %76 = icmp eq i32 %75, %9
  %77 = add nuw nsw i64 %61, 3
  %78 = getelementptr inbounds [2000 x i32], [2000 x i32]* @t, i64 0, i64 %77
  %79 = load i32, i32* %78, align 4, !tbaa !5
  %80 = add nsw i32 %79, %34
  %81 = icmp eq i32 %80, %9
  %82 = select i1 %81, i1 true, i1 %76
  %83 = select i1 %82, i1 true, i1 %71
  %84 = select i1 %83, i1 true, i1 %66
  %85 = select i1 %84, i32 1, i32 %62
  %86 = add nuw nsw i64 %61, 4
  %87 = icmp eq i64 %86, %15
  br i1 %87, label %88, label %60, !llvm.loop !11

88:                                               ; preds = %55, %60, %32, %25
  %89 = phi i32 [ %27, %25 ], [ %37, %32 ], [ %56, %55 ], [ %85, %60 ]
  %90 = add nuw nsw i64 %26, 1
  %91 = icmp eq i64 %90, %14
  br i1 %91, label %92, label %25, !llvm.loop !14

92:                                               ; preds = %88
  %93 = icmp eq i32 %89, 0
  br i1 %93, label %94, label %95

94:                                               ; preds = %0, %8, %92
  br label %95

95:                                               ; preds = %92, %94
  %96 = phi i8* [ getelementptr inbounds ([3 x i8], [3 x i8]* @.str.3, i64 0, i64 0), %94 ], [ getelementptr inbounds ([4 x i8], [4 x i8]* @.str.2, i64 0, i64 0), %92 ]
  %97 = call i32 (i8*, ...) @printf(i8* nonnull dereferenceable(1) %96)
  call void @llvm.lifetime.end.p0i8(i64 4, i8* nonnull %4) #3
  call void @llvm.lifetime.end.p0i8(i64 4, i8* nonnull %3) #3
  ret i32 0
}

; Function Attrs: argmemonly mustprogress nofree nosync nounwind willreturn
declare void @llvm.lifetime.start.p0i8(i64 immarg, i8* nocapture) #1

; Function Attrs: nofree nounwind
declare noundef i32 @__isoc99_scanf(i8* nocapture noundef readonly, ...) local_unnamed_addr #2

; Function Attrs: nofree nounwind
declare noundef i32 @printf(i8* nocapture noundef readonly, ...) local_unnamed_addr #2

; Function Attrs: argmemonly mustprogress nofree nosync nounwind willreturn
declare void @llvm.lifetime.end.p0i8(i64 immarg, i8* nocapture) #1


!llvm.module.flags = !{!0, !1, !2, !3}
!llvm.ident = !{!4}

!0 = !{i32 1, !"wchar_size", i32 4}
!1 = !{i32 7, !"PIC Level", i32 2}
!2 = !{i32 7, !"PIE Level", i32 2}
!3 = !{i32 7, !"uwtable", i32 1}
!4 = !{!"clang version 13.0.0"}
!5 = !{!6, !6, i64 0}
!6 = !{!"int", !7, i64 0}
!7 = !{!"omnipotent char", !8, i64 0}
!8 = !{!"Simple C/C++ TBAA"}
!9 = distinct !{!9, !10}
!10 = !{!"llvm.loop.mustprogress"}
!11 = distinct !{!11, !10}
!12 = distinct !{!12, !13}
!13 = !{!"llvm.loop.unroll.disable"}
!14 = distinct !{!14, !10}
